target datalayout = "e-m:e-p270:32:32-p271:32:32-p272:64:64-i64:64-i128:128-f80:128-n8:16:32:64-S128"
target triple = "x86_64-pc-linux-gnu"

%struct.asn1_object_st = type { ptr, ptr, i32, i32, ptr, i32 }

; Function Attrs: nounwind uwtable
define internal i32 @obj_cmp(ptr noundef %0, ptr noundef %1) #0 {
  %3 = alloca i32, align 4
  %4 = alloca ptr, align 8
  %5 = alloca ptr, align 8
  %6 = alloca i32, align 4
  %7 = alloca ptr, align 8
  %8 = alloca ptr, align 8
  %9 = alloca i32, align 4
  store ptr %0, ptr %4, align 8, !tbaa !36
  store ptr %1, ptr %5, align 8, !tbaa !28
  call void @llvm.lifetime.start.p0(i64 4, ptr %6) #6
  call void @llvm.lifetime.start.p0(i64 8, ptr %7) #6
  %10 = load ptr, ptr %4, align 8, !tbaa !36
  %11 = load ptr, ptr %10, align 8, !tbaa !23
  store ptr %11, ptr %7, align 8, !tbaa !23
  call void @llvm.lifetime.start.p0(i64 8, ptr %8) #6
  %12 = load ptr, ptr %5, align 8, !tbaa !28
  %13 = load i32, ptr %12, align 4, !tbaa !21
  %14 = zext i32 %13 to i64
  %15 = getelementptr inbounds nuw [1487 x %struct.asn1_object_st], ptr @nid_objs, i64 0, i64 %14
  store ptr %15, ptr %8, align 8, !tbaa !23
  %16 = load ptr, ptr %7, align 8, !tbaa !23
  %17 = getelementptr inbounds nuw %struct.asn1_object_st, ptr %16, i32 0, i32 3
  %18 = load i32, ptr %17, align 4, !tbaa !31
  %19 = load ptr, ptr %8, align 8, !tbaa !23
  %20 = getelementptr inbounds nuw %struct.asn1_object_st, ptr %19, i32 0, i32 3
  %21 = load i32, ptr %20, align 4, !tbaa !31
  %22 = sub nsw i32 %18, %21
  store i32 %22, ptr %6, align 4, !tbaa !21
  %23 = load i32, ptr %6, align 4, !tbaa !21
  %24 = icmp ne i32 %23, 0
  br i1 %24, label %25, label %27

25:                                               ; preds = %2
  %26 = load i32, ptr %6, align 4, !tbaa !21
  store i32 %26, ptr %3, align 4
  store i32 1, ptr %9, align 4
  br label %45

27:                                               ; preds = %2
  %28 = load ptr, ptr %7, align 8, !tbaa !23
  %29 = getelementptr inbounds nuw %struct.asn1_object_st, ptr %28, i32 0, i32 3
  %30 = load i32, ptr %29, align 4, !tbaa !31
  %31 = icmp eq i32 %30, 0
  br i1 %31, label %32, label %33

32:                                               ; preds = %27
  store i32 0, ptr %3, align 4
  store i32 1, ptr %9, align 4
  br label %45

33:                                               ; preds = %27
  %34 = load ptr, ptr %7, align 8, !tbaa !23
  %35 = getelementptr inbounds nuw %struct.asn1_object_st, ptr %34, i32 0, i32 4
  %36 = load ptr, ptr %35, align 8, !tbaa !30
  %37 = load ptr, ptr %8, align 8, !tbaa !23
  %38 = getelementptr inbounds nuw %struct.asn1_object_st, ptr %37, i32 0, i32 4
  %39 = load ptr, ptr %38, align 8, !tbaa !30
  %40 = load ptr, ptr %7, align 8, !tbaa !23
  %41 = getelementptr inbounds nuw %struct.asn1_object_st, ptr %40, i32 0, i32 3
  %42 = load i32, ptr %41, align 4, !tbaa !31
  %43 = sext i32 %42 to i64
  %44 = call i32 @memcmp(ptr noundef %36, ptr noundef %39, i64 noundef %43) #7
  store i32 %44, ptr %3, align 4
  store i32 1, ptr %9, align 4
  br label %45

45:                                               ; preds = %33, %32, %25
  call void @llvm.lifetime.end.p0(i64 8, ptr %8) #6
  call void @llvm.lifetime.end.p0(i64 8, ptr %7) #6
  call void @llvm.lifetime.end.p0(i64 4, ptr %6) #6
  %46 = load i32, ptr %3, align 4
  ret i32 %46
}

; Function Attrs: nounwind uwtable
define internal i32 @obj_cmp_BSEARCH_CMP_FN(ptr noundef %0, ptr noundef %1) #0 {
  %3 = alloca ptr, align 8
  %4 = alloca ptr, align 8
  %5 = alloca ptr, align 8
  %6 = alloca ptr, align 8
  store ptr %0, ptr %3, align 8, !tbaa !10
  store ptr %1, ptr %4, align 8, !tbaa !10
  call void @llvm.lifetime.start.p0(i64 8, ptr %5) #6
  %7 = load ptr, ptr %3, align 8, !tbaa !10
  store ptr %7, ptr %5, align 8, !tbaa !36
  call void @llvm.lifetime.start.p0(i64 8, ptr %6) #6
  %8 = load ptr, ptr %4, align 8, !tbaa !10
  store ptr %8, ptr %6, align 8, !tbaa !28
  %9 = load ptr, ptr %5, align 8, !tbaa !36
  %10 = load ptr, ptr %6, align 8, !tbaa !28
  %11 = call i32 @obj_cmp(ptr noundef %9, ptr noundef %10)
  call void @llvm.lifetime.end.p0(i64 8, ptr %6) #6
  call void @llvm.lifetime.end.p0(i64 8, ptr %5) #6
  ret i32 %11
}