; Function Attrs: mustprogress nofree nounwind willreturn memory(read, inaccessiblemem: none) uwtable
define internal i32 @obj_cmp_BSEARCH_CMP_FN(ptr noundef readonly captures(none) %0, ptr noundef readonly captures(none) %1) #7 {
  %.val = load ptr, ptr %0, align 8, !tbaa !22
  %.val4 = load i32, ptr %1, align 4, !tbaa !23
  %3 = zext i32 %.val4 to i64
  %4 = getelementptr inbounds nuw [1487 x %struct.asn1_object_st], ptr @nid_objs, i64 0, i64 %3
  %5 = getelementptr inbounds nuw i8, ptr %.val, i64 20
  %6 = load i32, ptr %5, align 4, !tbaa !25
  %7 = getelementptr inbounds nuw i8, ptr %4, i64 20
  %8 = load i32, ptr %7, align 4, !tbaa !25
  %9 = sub nsw i32 %6, %8
  %.not.i = icmp eq i32 %9, 0
  br i1 %.not.i, label %10, label %obj_cmp.exit

10:                                               ; preds = %2
  %11 = icmp eq i32 %6, 0
  br i1 %11, label %obj_cmp.exit, label %12

12:                                               ; preds = %10
  %13 = getelementptr inbounds nuw i8, ptr %.val, i64 24
  %14 = load ptr, ptr %13, align 8, !tbaa !24
  %15 = getelementptr inbounds nuw i8, ptr %4, i64 24
  %16 = load ptr, ptr %15, align 8, !tbaa !24
  %17 = sext i32 %6 to i64
  %18 = tail call i32 @memcmp(ptr noundef %14, ptr noundef %16, i64 noundef %17) #11
  br label %obj_cmp.exit

obj_cmp.exit:                                     ; preds = %2, %10, %12
  %.0.i = phi i32 [ %18, %12 ], [ %9, %2 ], [ 0, %10 ]
  ret i32 %.0.i
}